ARM GAS  C:\Users\user-pc\AppData\Local\Temp\ccuLJ4eI.s 			page 1


   1              		.cpu cortex-m4
   2              		.eabi_attribute 27, 1
   3              		.eabi_attribute 28, 1
   4              		.eabi_attribute 20, 1
   5              		.eabi_attribute 21, 1
   6              		.eabi_attribute 23, 3
   7              		.eabi_attribute 24, 1
   8              		.eabi_attribute 25, 1
   9              		.eabi_attribute 26, 1
  10              		.eabi_attribute 30, 1
  11              		.eabi_attribute 34, 1
  12              		.eabi_attribute 18, 4
  13              		.file	"spi.c"
  14              		.text
  15              	.Ltext0:
  16              		.cfi_sections	.debug_frame
  17              		.section	.text.MX_SPI3_Init,"ax",%progbits
  18              		.align	1
  19              		.global	MX_SPI3_Init
  20              		.arch armv7e-m
  21              		.syntax unified
  22              		.thumb
  23              		.thumb_func
  24              		.fpu fpv4-sp-d16
  26              	MX_SPI3_Init:
  27              	.LFB216:
  28              		.file 1 "Core/Src/spi.c"
   1:Core/Src/spi.c **** /**
   2:Core/Src/spi.c ****   ******************************************************************************
   3:Core/Src/spi.c ****   * @file    spi.c
   4:Core/Src/spi.c ****   * @brief   This file provides code for the configuration
   5:Core/Src/spi.c ****   *          of the SPI instances.
   6:Core/Src/spi.c ****   ******************************************************************************
   7:Core/Src/spi.c ****   * @attention
   8:Core/Src/spi.c ****   *
   9:Core/Src/spi.c ****   * <h2><center>&copy; Copyright (c) 2021 STMicroelectronics.
  10:Core/Src/spi.c ****   * All rights reserved.</center></h2>
  11:Core/Src/spi.c ****   *
  12:Core/Src/spi.c ****   * This software component is licensed by ST under Ultimate Liberty license
  13:Core/Src/spi.c ****   * SLA0044, the "License"; You may not use this file except in compliance with
  14:Core/Src/spi.c ****   * the License. You may obtain a copy of the License at:
  15:Core/Src/spi.c ****   *                             www.st.com/SLA0044
  16:Core/Src/spi.c ****   *
  17:Core/Src/spi.c ****   ******************************************************************************
  18:Core/Src/spi.c ****   */
  19:Core/Src/spi.c **** 
  20:Core/Src/spi.c **** /* Includes ------------------------------------------------------------------*/
  21:Core/Src/spi.c **** #include "spi.h"
  22:Core/Src/spi.c **** 
  23:Core/Src/spi.c **** /* USER CODE BEGIN 0 */
  24:Core/Src/spi.c **** 
  25:Core/Src/spi.c **** /* USER CODE END 0 */
  26:Core/Src/spi.c **** 
  27:Core/Src/spi.c **** SPI_HandleTypeDef hspi3;
  28:Core/Src/spi.c **** 
  29:Core/Src/spi.c **** /* SPI3 init function */
  30:Core/Src/spi.c **** void MX_SPI3_Init(void)
ARM GAS  C:\Users\user-pc\AppData\Local\Temp\ccuLJ4eI.s 			page 2


  31:Core/Src/spi.c **** {
  29              		.loc 1 31 1 view -0
  30              		.cfi_startproc
  31              		@ args = 0, pretend = 0, frame = 0
  32              		@ frame_needed = 0, uses_anonymous_args = 0
  33 0000 08B5     		push	{r3, lr}
  34              	.LCFI0:
  35              		.cfi_def_cfa_offset 8
  36              		.cfi_offset 3, -8
  37              		.cfi_offset 14, -4
  32:Core/Src/spi.c **** 
  33:Core/Src/spi.c ****   /* USER CODE BEGIN SPI3_Init 0 */
  34:Core/Src/spi.c **** 
  35:Core/Src/spi.c ****   /* USER CODE END SPI3_Init 0 */
  36:Core/Src/spi.c **** 
  37:Core/Src/spi.c ****   /* USER CODE BEGIN SPI3_Init 1 */
  38:Core/Src/spi.c **** 
  39:Core/Src/spi.c ****   /* USER CODE END SPI3_Init 1 */
  40:Core/Src/spi.c ****   hspi3.Instance = SPI3;
  38              		.loc 1 40 3 view .LVU1
  39              		.loc 1 40 18 is_stmt 0 view .LVU2
  40 0002 0E48     		ldr	r0, .L5
  41 0004 0E4B     		ldr	r3, .L5+4
  42 0006 0360     		str	r3, [r0]
  41:Core/Src/spi.c ****   hspi3.Init.Mode = SPI_MODE_MASTER;
  43              		.loc 1 41 3 is_stmt 1 view .LVU3
  44              		.loc 1 41 19 is_stmt 0 view .LVU4
  45 0008 4FF48273 		mov	r3, #260
  46 000c 4360     		str	r3, [r0, #4]
  42:Core/Src/spi.c ****   hspi3.Init.Direction = SPI_DIRECTION_2LINES;
  47              		.loc 1 42 3 is_stmt 1 view .LVU5
  48              		.loc 1 42 24 is_stmt 0 view .LVU6
  49 000e 0023     		movs	r3, #0
  50 0010 8360     		str	r3, [r0, #8]
  43:Core/Src/spi.c ****   hspi3.Init.DataSize = SPI_DATASIZE_8BIT;
  51              		.loc 1 43 3 is_stmt 1 view .LVU7
  52              		.loc 1 43 23 is_stmt 0 view .LVU8
  53 0012 C360     		str	r3, [r0, #12]
  44:Core/Src/spi.c ****   hspi3.Init.CLKPolarity = SPI_POLARITY_LOW;
  54              		.loc 1 44 3 is_stmt 1 view .LVU9
  55              		.loc 1 44 26 is_stmt 0 view .LVU10
  56 0014 0361     		str	r3, [r0, #16]
  45:Core/Src/spi.c ****   hspi3.Init.CLKPhase = SPI_PHASE_1EDGE;
  57              		.loc 1 45 3 is_stmt 1 view .LVU11
  58              		.loc 1 45 23 is_stmt 0 view .LVU12
  59 0016 4361     		str	r3, [r0, #20]
  46:Core/Src/spi.c ****   hspi3.Init.NSS = SPI_NSS_SOFT;
  60              		.loc 1 46 3 is_stmt 1 view .LVU13
  61              		.loc 1 46 18 is_stmt 0 view .LVU14
  62 0018 4FF40072 		mov	r2, #512
  63 001c 8261     		str	r2, [r0, #24]
  47:Core/Src/spi.c ****   hspi3.Init.BaudRatePrescaler = SPI_BAUDRATEPRESCALER_8;
  64              		.loc 1 47 3 is_stmt 1 view .LVU15
  65              		.loc 1 47 32 is_stmt 0 view .LVU16
  66 001e 1022     		movs	r2, #16
  67 0020 C261     		str	r2, [r0, #28]
  48:Core/Src/spi.c ****   hspi3.Init.FirstBit = SPI_FIRSTBIT_MSB;
ARM GAS  C:\Users\user-pc\AppData\Local\Temp\ccuLJ4eI.s 			page 3


  68              		.loc 1 48 3 is_stmt 1 view .LVU17
  69              		.loc 1 48 23 is_stmt 0 view .LVU18
  70 0022 0362     		str	r3, [r0, #32]
  49:Core/Src/spi.c ****   hspi3.Init.TIMode = SPI_TIMODE_DISABLE;
  71              		.loc 1 49 3 is_stmt 1 view .LVU19
  72              		.loc 1 49 21 is_stmt 0 view .LVU20
  73 0024 4362     		str	r3, [r0, #36]
  50:Core/Src/spi.c ****   hspi3.Init.CRCCalculation = SPI_CRCCALCULATION_DISABLE;
  74              		.loc 1 50 3 is_stmt 1 view .LVU21
  75              		.loc 1 50 29 is_stmt 0 view .LVU22
  76 0026 8362     		str	r3, [r0, #40]
  51:Core/Src/spi.c ****   hspi3.Init.CRCPolynomial = 10;
  77              		.loc 1 51 3 is_stmt 1 view .LVU23
  78              		.loc 1 51 28 is_stmt 0 view .LVU24
  79 0028 0A23     		movs	r3, #10
  80 002a C362     		str	r3, [r0, #44]
  52:Core/Src/spi.c ****   if (HAL_SPI_Init(&hspi3) != HAL_OK)
  81              		.loc 1 52 3 is_stmt 1 view .LVU25
  82              		.loc 1 52 7 is_stmt 0 view .LVU26
  83 002c FFF7FEFF 		bl	HAL_SPI_Init
  84              	.LVL0:
  85              		.loc 1 52 6 view .LVU27
  86 0030 00B9     		cbnz	r0, .L4
  87              	.L1:
  53:Core/Src/spi.c ****   {
  54:Core/Src/spi.c ****     Error_Handler();
  55:Core/Src/spi.c ****   }
  56:Core/Src/spi.c ****   /* USER CODE BEGIN SPI3_Init 2 */
  57:Core/Src/spi.c **** 
  58:Core/Src/spi.c ****   /* USER CODE END SPI3_Init 2 */
  59:Core/Src/spi.c **** 
  60:Core/Src/spi.c **** }
  88              		.loc 1 60 1 view .LVU28
  89 0032 08BD     		pop	{r3, pc}
  90              	.L4:
  54:Core/Src/spi.c ****   }
  91              		.loc 1 54 5 is_stmt 1 view .LVU29
  92 0034 FFF7FEFF 		bl	Error_Handler
  93              	.LVL1:
  94              		.loc 1 60 1 is_stmt 0 view .LVU30
  95 0038 FBE7     		b	.L1
  96              	.L6:
  97 003a 00BF     		.align	2
  98              	.L5:
  99 003c 00000000 		.word	.LANCHOR0
 100 0040 003C0040 		.word	1073757184
 101              		.cfi_endproc
 102              	.LFE216:
 104              		.section	.text.HAL_SPI_MspInit,"ax",%progbits
 105              		.align	1
 106              		.global	HAL_SPI_MspInit
 107              		.syntax unified
 108              		.thumb
 109              		.thumb_func
 110              		.fpu fpv4-sp-d16
 112              	HAL_SPI_MspInit:
 113              	.LVL2:
ARM GAS  C:\Users\user-pc\AppData\Local\Temp\ccuLJ4eI.s 			page 4


 114              	.LFB217:
  61:Core/Src/spi.c **** 
  62:Core/Src/spi.c **** void HAL_SPI_MspInit(SPI_HandleTypeDef* spiHandle)
  63:Core/Src/spi.c **** {
 115              		.loc 1 63 1 is_stmt 1 view -0
 116              		.cfi_startproc
 117              		@ args = 0, pretend = 0, frame = 32
 118              		@ frame_needed = 0, uses_anonymous_args = 0
 119              		.loc 1 63 1 is_stmt 0 view .LVU32
 120 0000 00B5     		push	{lr}
 121              	.LCFI1:
 122              		.cfi_def_cfa_offset 4
 123              		.cfi_offset 14, -4
 124 0002 89B0     		sub	sp, sp, #36
 125              	.LCFI2:
 126              		.cfi_def_cfa_offset 40
  64:Core/Src/spi.c **** 
  65:Core/Src/spi.c ****   GPIO_InitTypeDef GPIO_InitStruct = {0};
 127              		.loc 1 65 3 is_stmt 1 view .LVU33
 128              		.loc 1 65 20 is_stmt 0 view .LVU34
 129 0004 0023     		movs	r3, #0
 130 0006 0393     		str	r3, [sp, #12]
 131 0008 0493     		str	r3, [sp, #16]
 132 000a 0593     		str	r3, [sp, #20]
 133 000c 0693     		str	r3, [sp, #24]
 134 000e 0793     		str	r3, [sp, #28]
  66:Core/Src/spi.c ****   if(spiHandle->Instance==SPI3)
 135              		.loc 1 66 3 is_stmt 1 view .LVU35
 136              		.loc 1 66 15 is_stmt 0 view .LVU36
 137 0010 0268     		ldr	r2, [r0]
 138              		.loc 1 66 5 view .LVU37
 139 0012 154B     		ldr	r3, .L11
 140 0014 9A42     		cmp	r2, r3
 141 0016 02D0     		beq	.L10
 142              	.LVL3:
 143              	.L7:
  67:Core/Src/spi.c ****   {
  68:Core/Src/spi.c ****   /* USER CODE BEGIN SPI3_MspInit 0 */
  69:Core/Src/spi.c **** 
  70:Core/Src/spi.c ****   /* USER CODE END SPI3_MspInit 0 */
  71:Core/Src/spi.c ****     /* SPI3 clock enable */
  72:Core/Src/spi.c ****     __HAL_RCC_SPI3_CLK_ENABLE();
  73:Core/Src/spi.c **** 
  74:Core/Src/spi.c ****     __HAL_RCC_GPIOB_CLK_ENABLE();
  75:Core/Src/spi.c ****     /**SPI3 GPIO Configuration
  76:Core/Src/spi.c ****     PB3     ------> SPI3_SCK
  77:Core/Src/spi.c ****     PB4     ------> SPI3_MISO
  78:Core/Src/spi.c ****     PB5     ------> SPI3_MOSI
  79:Core/Src/spi.c ****     */
  80:Core/Src/spi.c ****     GPIO_InitStruct.Pin = GPIO_PIN_3|GPIO_PIN_4|GPIO_PIN_5;
  81:Core/Src/spi.c ****     GPIO_InitStruct.Mode = GPIO_MODE_AF_PP;
  82:Core/Src/spi.c ****     GPIO_InitStruct.Pull = GPIO_NOPULL;
  83:Core/Src/spi.c ****     GPIO_InitStruct.Speed = GPIO_SPEED_FREQ_VERY_HIGH;
  84:Core/Src/spi.c ****     GPIO_InitStruct.Alternate = GPIO_AF6_SPI3;
  85:Core/Src/spi.c ****     HAL_GPIO_Init(GPIOB, &GPIO_InitStruct);
  86:Core/Src/spi.c **** 
  87:Core/Src/spi.c ****   /* USER CODE BEGIN SPI3_MspInit 1 */
ARM GAS  C:\Users\user-pc\AppData\Local\Temp\ccuLJ4eI.s 			page 5


  88:Core/Src/spi.c **** 
  89:Core/Src/spi.c ****   /* USER CODE END SPI3_MspInit 1 */
  90:Core/Src/spi.c ****   }
  91:Core/Src/spi.c **** }
 144              		.loc 1 91 1 view .LVU38
 145 0018 09B0     		add	sp, sp, #36
 146              	.LCFI3:
 147              		.cfi_remember_state
 148              		.cfi_def_cfa_offset 4
 149              		@ sp needed
 150 001a 5DF804FB 		ldr	pc, [sp], #4
 151              	.LVL4:
 152              	.L10:
 153              	.LCFI4:
 154              		.cfi_restore_state
  72:Core/Src/spi.c **** 
 155              		.loc 1 72 5 is_stmt 1 view .LVU39
 156              	.LBB2:
  72:Core/Src/spi.c **** 
 157              		.loc 1 72 5 view .LVU40
 158 001e 0021     		movs	r1, #0
 159 0020 0191     		str	r1, [sp, #4]
  72:Core/Src/spi.c **** 
 160              		.loc 1 72 5 view .LVU41
 161 0022 03F5FE33 		add	r3, r3, #130048
 162 0026 1A6C     		ldr	r2, [r3, #64]
 163 0028 42F40042 		orr	r2, r2, #32768
 164 002c 1A64     		str	r2, [r3, #64]
  72:Core/Src/spi.c **** 
 165              		.loc 1 72 5 view .LVU42
 166 002e 1A6C     		ldr	r2, [r3, #64]
 167 0030 02F40042 		and	r2, r2, #32768
 168 0034 0192     		str	r2, [sp, #4]
  72:Core/Src/spi.c **** 
 169              		.loc 1 72 5 view .LVU43
 170 0036 019A     		ldr	r2, [sp, #4]
 171              	.LBE2:
  72:Core/Src/spi.c **** 
 172              		.loc 1 72 5 view .LVU44
  74:Core/Src/spi.c ****     /**SPI3 GPIO Configuration
 173              		.loc 1 74 5 view .LVU45
 174              	.LBB3:
  74:Core/Src/spi.c ****     /**SPI3 GPIO Configuration
 175              		.loc 1 74 5 view .LVU46
 176 0038 0291     		str	r1, [sp, #8]
  74:Core/Src/spi.c ****     /**SPI3 GPIO Configuration
 177              		.loc 1 74 5 view .LVU47
 178 003a 1A6B     		ldr	r2, [r3, #48]
 179 003c 42F00202 		orr	r2, r2, #2
 180 0040 1A63     		str	r2, [r3, #48]
  74:Core/Src/spi.c ****     /**SPI3 GPIO Configuration
 181              		.loc 1 74 5 view .LVU48
 182 0042 1B6B     		ldr	r3, [r3, #48]
 183 0044 03F00203 		and	r3, r3, #2
 184 0048 0293     		str	r3, [sp, #8]
  74:Core/Src/spi.c ****     /**SPI3 GPIO Configuration
 185              		.loc 1 74 5 view .LVU49
ARM GAS  C:\Users\user-pc\AppData\Local\Temp\ccuLJ4eI.s 			page 6


 186 004a 029B     		ldr	r3, [sp, #8]
 187              	.LBE3:
  74:Core/Src/spi.c ****     /**SPI3 GPIO Configuration
 188              		.loc 1 74 5 view .LVU50
  80:Core/Src/spi.c ****     GPIO_InitStruct.Mode = GPIO_MODE_AF_PP;
 189              		.loc 1 80 5 view .LVU51
  80:Core/Src/spi.c ****     GPIO_InitStruct.Mode = GPIO_MODE_AF_PP;
 190              		.loc 1 80 25 is_stmt 0 view .LVU52
 191 004c 3823     		movs	r3, #56
 192 004e 0393     		str	r3, [sp, #12]
  81:Core/Src/spi.c ****     GPIO_InitStruct.Pull = GPIO_NOPULL;
 193              		.loc 1 81 5 is_stmt 1 view .LVU53
  81:Core/Src/spi.c ****     GPIO_InitStruct.Pull = GPIO_NOPULL;
 194              		.loc 1 81 26 is_stmt 0 view .LVU54
 195 0050 0223     		movs	r3, #2
 196 0052 0493     		str	r3, [sp, #16]
  82:Core/Src/spi.c ****     GPIO_InitStruct.Speed = GPIO_SPEED_FREQ_VERY_HIGH;
 197              		.loc 1 82 5 is_stmt 1 view .LVU55
  83:Core/Src/spi.c ****     GPIO_InitStruct.Alternate = GPIO_AF6_SPI3;
 198              		.loc 1 83 5 view .LVU56
  83:Core/Src/spi.c ****     GPIO_InitStruct.Alternate = GPIO_AF6_SPI3;
 199              		.loc 1 83 27 is_stmt 0 view .LVU57
 200 0054 0323     		movs	r3, #3
 201 0056 0693     		str	r3, [sp, #24]
  84:Core/Src/spi.c ****     HAL_GPIO_Init(GPIOB, &GPIO_InitStruct);
 202              		.loc 1 84 5 is_stmt 1 view .LVU58
  84:Core/Src/spi.c ****     HAL_GPIO_Init(GPIOB, &GPIO_InitStruct);
 203              		.loc 1 84 31 is_stmt 0 view .LVU59
 204 0058 0623     		movs	r3, #6
 205 005a 0793     		str	r3, [sp, #28]
  85:Core/Src/spi.c **** 
 206              		.loc 1 85 5 is_stmt 1 view .LVU60
 207 005c 03A9     		add	r1, sp, #12
 208 005e 0348     		ldr	r0, .L11+4
 209              	.LVL5:
  85:Core/Src/spi.c **** 
 210              		.loc 1 85 5 is_stmt 0 view .LVU61
 211 0060 FFF7FEFF 		bl	HAL_GPIO_Init
 212              	.LVL6:
 213              		.loc 1 91 1 view .LVU62
 214 0064 D8E7     		b	.L7
 215              	.L12:
 216 0066 00BF     		.align	2
 217              	.L11:
 218 0068 003C0040 		.word	1073757184
 219 006c 00040240 		.word	1073873920
 220              		.cfi_endproc
 221              	.LFE217:
 223              		.section	.text.HAL_SPI_MspDeInit,"ax",%progbits
 224              		.align	1
 225              		.global	HAL_SPI_MspDeInit
 226              		.syntax unified
 227              		.thumb
 228              		.thumb_func
 229              		.fpu fpv4-sp-d16
 231              	HAL_SPI_MspDeInit:
 232              	.LVL7:
ARM GAS  C:\Users\user-pc\AppData\Local\Temp\ccuLJ4eI.s 			page 7


 233              	.LFB218:
  92:Core/Src/spi.c **** 
  93:Core/Src/spi.c **** void HAL_SPI_MspDeInit(SPI_HandleTypeDef* spiHandle)
  94:Core/Src/spi.c **** {
 234              		.loc 1 94 1 is_stmt 1 view -0
 235              		.cfi_startproc
 236              		@ args = 0, pretend = 0, frame = 0
 237              		@ frame_needed = 0, uses_anonymous_args = 0
 238              		.loc 1 94 1 is_stmt 0 view .LVU64
 239 0000 08B5     		push	{r3, lr}
 240              	.LCFI5:
 241              		.cfi_def_cfa_offset 8
 242              		.cfi_offset 3, -8
 243              		.cfi_offset 14, -4
  95:Core/Src/spi.c **** 
  96:Core/Src/spi.c ****   if(spiHandle->Instance==SPI3)
 244              		.loc 1 96 3 is_stmt 1 view .LVU65
 245              		.loc 1 96 15 is_stmt 0 view .LVU66
 246 0002 0268     		ldr	r2, [r0]
 247              		.loc 1 96 5 view .LVU67
 248 0004 064B     		ldr	r3, .L17
 249 0006 9A42     		cmp	r2, r3
 250 0008 00D0     		beq	.L16
 251              	.LVL8:
 252              	.L13:
  97:Core/Src/spi.c ****   {
  98:Core/Src/spi.c ****   /* USER CODE BEGIN SPI3_MspDeInit 0 */
  99:Core/Src/spi.c **** 
 100:Core/Src/spi.c ****   /* USER CODE END SPI3_MspDeInit 0 */
 101:Core/Src/spi.c ****     /* Peripheral clock disable */
 102:Core/Src/spi.c ****     __HAL_RCC_SPI3_CLK_DISABLE();
 103:Core/Src/spi.c **** 
 104:Core/Src/spi.c ****     /**SPI3 GPIO Configuration
 105:Core/Src/spi.c ****     PB3     ------> SPI3_SCK
 106:Core/Src/spi.c ****     PB4     ------> SPI3_MISO
 107:Core/Src/spi.c ****     PB5     ------> SPI3_MOSI
 108:Core/Src/spi.c ****     */
 109:Core/Src/spi.c ****     HAL_GPIO_DeInit(GPIOB, GPIO_PIN_3|GPIO_PIN_4|GPIO_PIN_5);
 110:Core/Src/spi.c **** 
 111:Core/Src/spi.c ****   /* USER CODE BEGIN SPI3_MspDeInit 1 */
 112:Core/Src/spi.c **** 
 113:Core/Src/spi.c ****   /* USER CODE END SPI3_MspDeInit 1 */
 114:Core/Src/spi.c ****   }
 115:Core/Src/spi.c **** }
 253              		.loc 1 115 1 view .LVU68
 254 000a 08BD     		pop	{r3, pc}
 255              	.LVL9:
 256              	.L16:
 102:Core/Src/spi.c **** 
 257              		.loc 1 102 5 is_stmt 1 view .LVU69
 258 000c 054A     		ldr	r2, .L17+4
 259 000e 136C     		ldr	r3, [r2, #64]
 260 0010 23F40043 		bic	r3, r3, #32768
 261 0014 1364     		str	r3, [r2, #64]
 109:Core/Src/spi.c **** 
 262              		.loc 1 109 5 view .LVU70
 263 0016 3821     		movs	r1, #56
ARM GAS  C:\Users\user-pc\AppData\Local\Temp\ccuLJ4eI.s 			page 8


 264 0018 0348     		ldr	r0, .L17+8
 265              	.LVL10:
 109:Core/Src/spi.c **** 
 266              		.loc 1 109 5 is_stmt 0 view .LVU71
 267 001a FFF7FEFF 		bl	HAL_GPIO_DeInit
 268              	.LVL11:
 269              		.loc 1 115 1 view .LVU72
 270 001e F4E7     		b	.L13
 271              	.L18:
 272              		.align	2
 273              	.L17:
 274 0020 003C0040 		.word	1073757184
 275 0024 00380240 		.word	1073887232
 276 0028 00040240 		.word	1073873920
 277              		.cfi_endproc
 278              	.LFE218:
 280              		.global	hspi3
 281              		.section	.bss.hspi3,"aw",%nobits
 282              		.align	2
 283              		.set	.LANCHOR0,. + 0
 286              	hspi3:
 287 0000 00000000 		.space	88
 287      00000000 
 287      00000000 
 287      00000000 
 287      00000000 
 288              		.text
 289              	.Letext0:
 290              		.file 2 "c:\\program files (x86)\\gnu arm embedded toolchain\\10 2020-q4-major\\arm-none-eabi\\inc
 291              		.file 3 "c:\\program files (x86)\\gnu arm embedded toolchain\\10 2020-q4-major\\arm-none-eabi\\inc
 292              		.file 4 "Drivers/CMSIS/Device/ST/STM32F4xx/Include/stm32f411xe.h"
 293              		.file 5 "Drivers/STM32F4xx_HAL_Driver/Inc/stm32f4xx_hal_def.h"
 294              		.file 6 "Drivers/STM32F4xx_HAL_Driver/Inc/stm32f4xx_hal_gpio.h"
 295              		.file 7 "Drivers/STM32F4xx_HAL_Driver/Inc/stm32f4xx_hal_dma.h"
 296              		.file 8 "Drivers/STM32F4xx_HAL_Driver/Inc/stm32f4xx_hal_spi.h"
 297              		.file 9 "Core/Inc/main.h"
 298              		.file 10 "Core/Inc/spi.h"
ARM GAS  C:\Users\user-pc\AppData\Local\Temp\ccuLJ4eI.s 			page 9

